; Function Attrs: mustprogress uwtable
define noundef nonnull align 8 dereferenceable(64) ptr @_ZN6icu_7714Transliterator19getAvailableVariantEiRKNS_13UnicodeStringES3_RS1_(i32 noundef %0, ptr noundef nonnull align 8 dereferenceable(64) %1, ptr noundef nonnull align 8 dereferenceable(64) %2, ptr noundef nonnull returned align 8 dereferenceable(64) %3) local_unnamed_addr #1 align 2 personality ptr @__gxx_personality_v0 {
  %5 = alloca i32, align 4
  tail call void @umtx_lock_77(ptr noundef nonnull @_ZL13registryMutex)
  call void @llvm.lifetime.start.p0(i64 4, ptr nonnull %5) #21
  store i32 0, ptr %5, align 4, !tbaa !13
  %6 = load ptr, ptr @_ZL8registry, align 8, !tbaa !49
  %.not = icmp eq ptr %6, null
  br i1 %.not, label %7, label %10

7:                                                ; preds = %4
  %8 = invoke noundef signext i8 @_ZN6icu_7714Transliterator18initializeRegistryER10UErrorCode(ptr noundef nonnull align 4 dereferenceable(4) %5)
          to label %9 unwind label %13

9:                                                ; preds = %7
  %.not6 = icmp eq i8 %8, 0
  br i1 %.not6, label %_ZN6icu_7714Transliterator20_getAvailableVariantEiRKNS_13UnicodeStringES3_RS1_.exit, label %._crit_edge

._crit_edge:                                      ; preds = %9
  %.pre = load ptr, ptr @_ZL8registry, align 8, !tbaa !49
  br label %10

10:                                               ; preds = %._crit_edge, %4
  %11 = phi ptr [ %.pre, %._crit_edge ], [ %6, %4 ]
  %12 = invoke noundef nonnull align 8 dereferenceable(64) ptr @_ZNK6icu_7722TransliteratorRegistry19getAvailableVariantEiRKNS_13UnicodeStringES3_RS1_(ptr noundef nonnull align 8 dereferenceable(312) %11, i32 noundef %0, ptr noundef nonnull align 8 dereferenceable(64) %1, ptr noundef nonnull align 8 dereferenceable(64) %2, ptr noundef nonnull align 8 dereferenceable(64) %3)
          to label %_ZN6icu_7714Transliterator20_getAvailableVariantEiRKNS_13UnicodeStringES3_RS1_.exit unwind label %13

13:                                               ; preds = %10, %7
  %14 = landingpad { ptr, i32 }
          cleanup
  call void @llvm.lifetime.end.p0(i64 4, ptr nonnull %5) #21
  invoke void @umtx_unlock_77(ptr noundef nonnull @_ZL13registryMutex)
          to label %_ZN6icu_775MutexD2Ev.exit unwind label %15

15:                                               ; preds = %13
  %16 = landingpad { ptr, i32 }
          catch ptr null
  %17 = extractvalue { ptr, i32 } %16, 0
  call void @__clang_call_terminate(ptr %17) #23
  unreachable

_ZN6icu_775MutexD2Ev.exit:                        ; preds = %13
  resume { ptr, i32 } %14

_ZN6icu_7714Transliterator20_getAvailableVariantEiRKNS_13UnicodeStringES3_RS1_.exit: ; preds = %10, %9
  call void @llvm.lifetime.end.p0(i64 4, ptr nonnull %5) #21
  invoke void @umtx_unlock_77(ptr noundef nonnull @_ZL13registryMutex)
          to label %_ZN6icu_775MutexD2Ev.exit7 unwind label %18

18:                                               ; preds = %_ZN6icu_7714Transliterator20_getAvailableVariantEiRKNS_13UnicodeStringES3_RS1_.exit
  %19 = landingpad { ptr, i32 }
          catch ptr null
  %20 = extractvalue { ptr, i32 } %19, 0
  call void @__clang_call_terminate(ptr %20) #23
  unreachable

_ZN6icu_775MutexD2Ev.exit7:                       ; preds = %_ZN6icu_7714Transliterator20_getAvailableVariantEiRKNS_13UnicodeStringES3_RS1_.exit
  ret ptr %3
}